target datalayout = "e-m:e-p270:32:32-p271:32:32-p272:64:64-i64:64-i128:128-f80:128-n8:16:32:64-S128"
target triple = "x86_64-pc-linux-gnu"

@.str.1 = private unnamed_addr constant [101 x i8] c"generated/home/dtcxzyw/WorkSpace/Projects/compilers/llvm-opt-benchmark/bench/hdf5/hdf5/src/H5Pdxpl.c\00", align 1
@H5E_CANTSET_g = external global i64, align 8
@H5E_PLIST_g = external global i64, align 8
@.str.23 = private unnamed_addr constant [20 x i8] c"unable to set value\00", align 1
@.str.31 = private unnamed_addr constant [11 x i8] c"vlen_alloc\00", align 1
@__func__.H5P_set_vlen_mem_manager = private unnamed_addr constant [25 x i8] c"H5P_set_vlen_mem_manager\00", align 1
@.str.32 = private unnamed_addr constant [16 x i8] c"vlen_alloc_info\00", align 1
@.str.33 = private unnamed_addr constant [10 x i8] c"vlen_free\00", align 1
@.str.34 = private unnamed_addr constant [15 x i8] c"vlen_free_info\00", align 1

; Function Attrs: nounwind uwtable
define i32 @H5P_set_vlen_mem_manager(ptr noundef %0, ptr noundef %1, ptr noundef %2, ptr noundef %3, ptr noundef %4) #0 {
  %6 = alloca ptr, align 8
  %7 = alloca ptr, align 8
  %8 = alloca ptr, align 8
  %9 = alloca ptr, align 8
  %10 = alloca ptr, align 8
  %11 = alloca i32, align 4
  %12 = alloca i8, align 1
  store ptr %0, ptr %6, align 8
  store ptr %1, ptr %7, align 8
  store ptr %2, ptr %8, align 8
  store ptr %3, ptr %9, align 8
  store ptr %4, ptr %10, align 8
  store i32 0, ptr %11, align 4
  store i8 0, ptr %12, align 1
  %13 = load ptr, ptr %6, align 8
  %14 = call i32 @H5P_set(ptr noundef %13, ptr noundef @.str.31, ptr noundef %7)
  %15 = icmp slt i32 %14, 0
  br i1 %15, label %16, label %31

16:                                               ; preds = %5
  br label %17

17:                                               ; preds = %16
  br label %18

18:                                               ; preds = %17
  br label %19

19:                                               ; preds = %18
  %20 = load i64, ptr @H5E_PLIST_g, align 8
  %21 = load i64, ptr @H5E_CANTSET_g, align 8
  %22 = call i32 (ptr, ptr, i32, i64, i64, ptr, ...) @H5E_printf_stack(ptr noundef @.str.1, ptr noundef @__func__.H5P_set_vlen_mem_manager, i32 noundef 1511, i64 noundef %20, i64 noundef %21, ptr noundef @.str.23)
  br label %23

23:                                               ; preds = %19
  store i8 1, ptr %12, align 1
  %24 = load i8, ptr %12, align 1
  %25 = trunc i8 %24 to i1
  %26 = zext i1 %25 to i8
  store i8 %26, ptr %12, align 1
  br label %27

27:                                               ; preds = %23
  br label %28

28:                                               ; preds = %27
  store i32 -1, ptr %11, align 4
  br label %89

29:                                               ; No predecessors!
  br label %30

30:                                               ; preds = %29
  br label %31

31:                                               ; preds = %30, %5
  %32 = load ptr, ptr %6, align 8
  %33 = call i32 @H5P_set(ptr noundef %32, ptr noundef @.str.32, ptr noundef %8)
  %34 = icmp slt i32 %33, 0
  br i1 %34, label %35, label %50

35:                                               ; preds = %31
  br label %36

36:                                               ; preds = %35
  br label %37

37:                                               ; preds = %36
  br label %38

38:                                               ; preds = %37
  %39 = load i64, ptr @H5E_PLIST_g, align 8
  %40 = load i64, ptr @H5E_CANTSET_g, align 8
  %41 = call i32 (ptr, ptr, i32, i64, i64, ptr, ...) @H5E_printf_stack(ptr noundef @.str.1, ptr noundef @__func__.H5P_set_vlen_mem_manager, i32 noundef 1513, i64 noundef %39, i64 noundef %40, ptr noundef @.str.23)
  br label %42

42:                                               ; preds = %38
  store i8 1, ptr %12, align 1
  %43 = load i8, ptr %12, align 1
  %44 = trunc i8 %43 to i1
  %45 = zext i1 %44 to i8
  store i8 %45, ptr %12, align 1
  br label %46

46:                                               ; preds = %42
  br label %47

47:                                               ; preds = %46
  store i32 -1, ptr %11, align 4
  br label %89

48:                                               ; No predecessors!
  br label %49

49:                                               ; preds = %48
  br label %50

50:                                               ; preds = %49, %31
  %51 = load ptr, ptr %6, align 8
  %52 = call i32 @H5P_set(ptr noundef %51, ptr noundef @.str.33, ptr noundef %9)
  %53 = icmp slt i32 %52, 0
  br i1 %53, label %54, label %69

54:                                               ; preds = %50
  br label %55

55:                                               ; preds = %54
  br label %56

56:                                               ; preds = %55
  br label %57

57:                                               ; preds = %56
  %58 = load i64, ptr @H5E_PLIST_g, align 8
  %59 = load i64, ptr @H5E_CANTSET_g, align 8
  %60 = call i32 (ptr, ptr, i32, i64, i64, ptr, ...) @H5E_printf_stack(ptr noundef @.str.1, ptr noundef @__func__.H5P_set_vlen_mem_manager, i32 noundef 1515, i64 noundef %58, i64 noundef %59, ptr noundef @.str.23)
  br label %61

61:                                               ; preds = %57
  store i8 1, ptr %12, align 1
  %62 = load i8, ptr %12, align 1
  %63 = trunc i8 %62 to i1
  %64 = zext i1 %63 to i8
  store i8 %64, ptr %12, align 1
  br label %65

65:                                               ; preds = %61
  br label %66

66:                                               ; preds = %65
  store i32 -1, ptr %11, align 4
  br label %89

67:                                               ; No predecessors!
  br label %68

68:                                               ; preds = %67
  br label %69

69:                                               ; preds = %68, %50
  %70 = load ptr, ptr %6, align 8
  %71 = call i32 @H5P_set(ptr noundef %70, ptr noundef @.str.34, ptr noundef %10)
  %72 = icmp slt i32 %71, 0
  br i1 %72, label %73, label %88

73:                                               ; preds = %69
  br label %74

74:                                               ; preds = %73
  br label %75

75:                                               ; preds = %74
  br label %76

76:                                               ; preds = %75
  %77 = load i64, ptr @H5E_PLIST_g, align 8
  %78 = load i64, ptr @H5E_CANTSET_g, align 8
  %79 = call i32 (ptr, ptr, i32, i64, i64, ptr, ...) @H5E_printf_stack(ptr noundef @.str.1, ptr noundef @__func__.H5P_set_vlen_mem_manager, i32 noundef 1517, i64 noundef %77, i64 noundef %78, ptr noundef @.str.23)
  br label %80

80:                                               ; preds = %76
  store i8 1, ptr %12, align 1
  %81 = load i8, ptr %12, align 1
  %82 = trunc i8 %81 to i1
  %83 = zext i1 %82 to i8
  store i8 %83, ptr %12, align 1
  br label %84

84:                                               ; preds = %80
  br label %85

85:                                               ; preds = %84
  store i32 -1, ptr %11, align 4
  br label %89

86:                                               ; No predecessors!
  br label %87

87:                                               ; preds = %86
  br label %88

88:                                               ; preds = %87, %69
  br label %89

89:                                               ; preds = %88, %85, %66, %47, %28
  %90 = load i32, ptr %11, align 4
  ret i32 %90
}