; Function Attrs: nounwind uwtable
define range(i32 -1, 1) i32 @H5P_set_vlen_mem_manager(ptr noundef %0, ptr noundef %1, ptr noundef %2, ptr noundef %3, ptr noundef %4) local_unnamed_addr #0 {
  %6 = alloca ptr, align 8
  %7 = alloca ptr, align 8
  %8 = alloca ptr, align 8
  %9 = alloca ptr, align 8
  store ptr %1, ptr %6, align 8
  store ptr %2, ptr %7, align 8
  store ptr %3, ptr %8, align 8
  store ptr %4, ptr %9, align 8
  %10 = call i32 @H5P_set(ptr noundef %0, ptr noundef nonnull @.str.31, ptr noundef nonnull %6) #8
  %11 = icmp slt i32 %10, 0
  br i1 %11, label %.sink.split, label %12

12:                                               ; preds = %5
  %13 = call i32 @H5P_set(ptr noundef %0, ptr noundef nonnull @.str.32, ptr noundef nonnull %7) #8
  %14 = icmp slt i32 %13, 0
  br i1 %14, label %.sink.split, label %15

15:                                               ; preds = %12
  %16 = call i32 @H5P_set(ptr noundef %0, ptr noundef nonnull @.str.33, ptr noundef nonnull %8) #8
  %17 = icmp slt i32 %16, 0
  br i1 %17, label %.sink.split, label %18

18:                                               ; preds = %15
  %19 = call i32 @H5P_set(ptr noundef %0, ptr noundef nonnull @.str.34, ptr noundef nonnull %9) #8
  %20 = icmp slt i32 %19, 0
  br i1 %20, label %.sink.split, label %24

.sink.split:                                      ; preds = %18, %15, %12, %5
  %.sink = phi i32 [ 1511, %5 ], [ 1513, %12 ], [ 1515, %15 ], [ 1517, %18 ]
  %21 = load i64, ptr @H5E_PLIST_g, align 8
  %22 = load i64, ptr @H5E_CANTSET_g, align 8
  %23 = call i32 (ptr, ptr, i32, i64, i64, ptr, ...) @H5E_printf_stack(ptr noundef nonnull @.str.1, ptr noundef nonnull @__func__.H5P_set_vlen_mem_manager, i32 noundef %.sink, i64 noundef %21, i64 noundef %22, ptr noundef nonnull @.str.23) #8
  br label %24

24:                                               ; preds = %.sink.split, %18
  %.0 = phi i32 [ 0, %18 ], [ -1, %.sink.split ]
  ret i32 %.0
}